target datalayout = "e-m:e-p270:32:32-p271:32:32-p272:64:64-i64:64-i128:128-f80:128-n8:16:32:64-S128"
target triple = "x86_64-pc-linux-gnu"

%struct.GetBitContext = type { ptr, ptr, i32, i32, i32 }
%struct.AVCodecContext = type { ptr, i32, i32, ptr, i32, i32, ptr, ptr, ptr, i64, i32, i32, ptr, i32, %struct.AVRational, %struct.AVRational, %struct.AVRational, i32, i32, i32, i32, i32, %struct.AVRational, i32, i32, i32, i32, i32, i32, i32, i32, i32, i32, i32, ptr, ptr, i32, float, float, float, float, float, float, float, float, float, i32, i32, i32, i32, i32, i32, i32, i32, i32, i32, i32, i32, ptr, ptr, ptr, i32, i32, i32, i32, i32, i32, i32, i32, i32, i32, %struct.AVChannelLayout, i32, i32, i32, i32, i32, i32, i32, i32, ptr, i32, i32, i32, float, float, i32, i32, i32, i32, i32, ptr, i64, i64, float, float, i32, i32, ptr, ptr, i32, i32, i32, i32, i32, ptr, ptr, ptr, ptr, i32, i32, [8 x i64], i32, i32, i32, i32, i32, i32, i32, ptr, ptr, i32, i32, i32, i32, i32, i32, i32, i32, i32, i32, ptr, ptr, i32, i32, ptr, ptr, ptr, ptr, i32, i32, i64, i32, i32, i64, ptr, i64, ptr, i32, ptr, i32 }
%struct.AVRational = type { i32, i32 }
%struct.AVChannelLayout = type { i32, i32, %union.anon, ptr }
%union.anon = type { i64 }
%struct.RV34DecContext = type { %struct.MpegEncContext, %struct.RV34DSPContext, ptr, ptr, i32, ptr, ptr, ptr, %struct.H264PredContext, %struct.SliceInfo, ptr, i32, i32, i32, i32, [4 x [2 x i32]], i32, i32, i32, i32, i32, i32, i32, i32, i32, i32, i32, i32, ptr, ptr, ptr, [12 x i32], [2 x ptr], [4 x ptr], ptr, ptr, ptr, ptr, ptr }
%struct.MpegEncContext = type { ptr, i32, i32, i32, [12 x i32], i32, %struct.ScanTable, %struct.ScanTable, [64 x i8], [64 x i8], ptr, ptr, i32, i32, i32, i32, i32, i32, i32, i32, i32, i32, i32, i32, i32, i32, i32, i32, i32, i32, i32, i32, i64, i64, ptr, %struct.BufferPoolContext, i32, i32, %union.anon.0, i32, %struct.MPVWorkPicture, %struct.MPVWorkPicture, %struct.MPVWorkPicture, i32, [3 x i32], ptr, [3 x ptr], ptr, ptr, ptr, ptr, ptr, ptr, [3 x ptr], i32, ptr, ptr, ptr, ptr, %struct.ScratchpadContext, i32, i32, i32, i32, i32, i32, %struct.BlockDSPContext, %struct.H264ChromaContext, %struct.HpelDSPContext, %struct.IDCTDSPContext, %struct.QpelDSPContext, %struct.VideoDSPContext, %struct.H263DSPContext, ptr, [2 x [2 x ptr]], i32, i32, [2 x [4 x [2 x i32]]], [2 x [2 x i32]], [2 x [2 x [2 x i32]]], [2 x [64 x i16]], i32, i32, i32, i32, i32, [6 x i32], [6 x i32], [3 x ptr], ptr, [64 x i16], [64 x i16], [64 x i16], [64 x i16], i32, i32, %struct.GetBitContext, i32, i32, i32, i32, i32, i32, i32, i32, i32, i32, i32, i32, i32, i32, i32, i64, i64, i16, i16, i16, i16, i32, i32, i32, i32, i32, i32, i32, i32, i32, [3 x i32], i32, i32, i32, i32, i32, i32, %struct.GetBitContext, i32, [2 x [2 x i32]], i32, i32, i32, i32, i32, i32, i32, i32, i32, i32, i32, i32, i32, i32, [2 x i32], i32, i32, ptr, ptr, ptr, ptr, ptr, i32, i32, %struct.ERContext }
%struct.ScanTable = type { ptr, [64 x i8], [64 x i8] }
%struct.BufferPoolContext = type { ptr, ptr, ptr, ptr, ptr, i32, i32, i32 }
%union.anon.0 = type { [32 x ptr] }
%struct.MPVWorkPicture = type { [3 x ptr], [3 x i64], ptr, ptr, [2 x ptr], ptr, ptr, [2 x ptr], i32 }
%struct.ScratchpadContext = type { ptr, ptr, %union.anon.1, i32 }
%union.anon.1 = type { ptr }
%struct.BlockDSPContext = type { ptr, ptr, [2 x ptr] }
%struct.H264ChromaContext = type { [4 x ptr], [4 x ptr] }
%struct.HpelDSPContext = type { [4 x [4 x ptr]], [4 x [4 x ptr]], [4 x [4 x ptr]], [4 x ptr] }
%struct.IDCTDSPContext = type { ptr, ptr, ptr, ptr, ptr, ptr, [64 x i8], i32, i32 }
%struct.QpelDSPContext = type { [2 x [16 x ptr]], [2 x [16 x ptr]], [2 x [16 x ptr]] }
%struct.VideoDSPContext = type { ptr, ptr }
%struct.H263DSPContext = type { ptr, ptr }
%struct.ERContext = type { ptr, ptr, i32, ptr, i32, i32, i32, i64, i64, i32, i32, ptr, ptr, [3 x ptr], ptr, ptr, [2 x [4 x [2 x i32]]], %struct.ERPicture, %struct.ERPicture, %struct.ERPicture, [2 x ptr], [2 x ptr], i16, i16, i32, i32, ptr, ptr }
%struct.ERPicture = type { ptr, ptr, ptr, [2 x ptr], [2 x ptr], ptr, i32 }
%struct.RV34DSPContext = type { [4 x [16 x ptr]], [4 x [16 x ptr]], [3 x ptr], [3 x ptr], [2 x [2 x ptr]], ptr, ptr, ptr, ptr, [2 x ptr], [2 x ptr], [2 x ptr] }
%struct.H264PredContext = type { [15 x ptr], [12 x ptr], [11 x ptr], [9 x ptr], [2 x ptr], [2 x ptr], [2 x ptr], [3 x ptr], [3 x ptr] }
%struct.SliceInfo = type { i32, i32, i32, i32, i32, i32, i32, i32 }

; Function Attrs: nounwind uwtable
define internal void @rv34_decoder_free(ptr noundef %0) #0 {
  %2 = alloca ptr, align 8
  store ptr %0, ptr %2, align 8, !tbaa !41
  %3 = load ptr, ptr %2, align 8, !tbaa !41
  %4 = getelementptr inbounds nuw %struct.RV34DecContext, ptr %3, i32 0, i32 2
  call void @av_freep(ptr noundef %4)
  %5 = load ptr, ptr %2, align 8, !tbaa !41
  %6 = getelementptr inbounds nuw %struct.RV34DecContext, ptr %5, i32 0, i32 3
  store ptr null, ptr %6, align 8, !tbaa !83
  %7 = load ptr, ptr %2, align 8, !tbaa !41
  %8 = getelementptr inbounds nuw %struct.RV34DecContext, ptr %7, i32 0, i32 34
  call void @av_freep(ptr noundef %8)
  %9 = load ptr, ptr %2, align 8, !tbaa !41
  %10 = getelementptr inbounds nuw %struct.RV34DecContext, ptr %9, i32 0, i32 10
  call void @av_freep(ptr noundef %10)
  %11 = load ptr, ptr %2, align 8, !tbaa !41
  %12 = getelementptr inbounds nuw %struct.RV34DecContext, ptr %11, i32 0, i32 28
  call void @av_freep(ptr noundef %12)
  %13 = load ptr, ptr %2, align 8, !tbaa !41
  %14 = getelementptr inbounds nuw %struct.RV34DecContext, ptr %13, i32 0, i32 29
  call void @av_freep(ptr noundef %14)
  %15 = load ptr, ptr %2, align 8, !tbaa !41
  %16 = getelementptr inbounds nuw %struct.RV34DecContext, ptr %15, i32 0, i32 30
  call void @av_freep(ptr noundef %16)
  ret void
}

; Function Attrs: nounwind uwtable
define internal i32 @rv34_decoder_realloc(ptr noundef %0) #0 {
  %2 = alloca ptr, align 8
  store ptr %0, ptr %2, align 8, !tbaa !41
  %3 = load ptr, ptr %2, align 8, !tbaa !41
  call void @rv34_decoder_free(ptr noundef %3)
  %4 = load ptr, ptr %2, align 8, !tbaa !41
  %5 = call i32 @rv34_decoder_alloc(ptr noundef %4)
  ret i32 %5
}

; Function Attrs: nounwind uwtable
define i32 @ff_rv34_decode_update_thread_context(ptr noundef %0, ptr noundef %1) #0 {
  %3 = alloca i32, align 4
  %4 = alloca ptr, align 8
  %5 = alloca ptr, align 8
  %6 = alloca ptr, align 8
  %7 = alloca ptr, align 8
  %8 = alloca ptr, align 8
  %9 = alloca i32, align 4
  %10 = alloca i32, align 4
  store ptr %0, ptr %4, align 8, !tbaa !21
  store ptr %1, ptr %5, align 8, !tbaa !21
  call void @llvm.lifetime.start.p0(i64 8, ptr %6) #12
  %11 = load ptr, ptr %4, align 8, !tbaa !21
  %12 = getelementptr inbounds nuw %struct.AVCodecContext, ptr %11, i32 0, i32 6
  %13 = load ptr, ptr %12, align 8, !tbaa !23
  store ptr %13, ptr %6, align 8, !tbaa !41
  call void @llvm.lifetime.start.p0(i64 8, ptr %7) #12
  %14 = load ptr, ptr %5, align 8, !tbaa !21
  %15 = getelementptr inbounds nuw %struct.AVCodecContext, ptr %14, i32 0, i32 6
  %16 = load ptr, ptr %15, align 8, !tbaa !23
  store ptr %16, ptr %7, align 8, !tbaa !41
  call void @llvm.lifetime.start.p0(i64 8, ptr %8) #12
  %17 = load ptr, ptr %7, align 8, !tbaa !41
  %18 = getelementptr inbounds nuw %struct.RV34DecContext, ptr %17, i32 0, i32 0
  store ptr %18, ptr %8, align 8, !tbaa !43
  call void @llvm.lifetime.start.p0(i64 4, ptr %9) #12
  %19 = load ptr, ptr %4, align 8, !tbaa !21
  %20 = load ptr, ptr %5, align 8, !tbaa !21
  %21 = icmp eq ptr %19, %20
  br i1 %21, label %27, label %22

22:                                               ; preds = %2
  %23 = load ptr, ptr %8, align 8, !tbaa !43
  %24 = getelementptr inbounds nuw %struct.MpegEncContext, ptr %23, i32 0, i32 23
  %25 = load i32, ptr %24, align 4, !tbaa !91
  %26 = icmp ne i32 %25, 0
  br i1 %26, label %28, label %27

27:                                               ; preds = %22, %2
  store i32 0, ptr %3, align 4
  store i32 1, ptr %10, align 4
  br label %65

28:                                               ; preds = %22
  %29 = load ptr, ptr %4, align 8, !tbaa !21
  %30 = load ptr, ptr %5, align 8, !tbaa !21
  %31 = call i32 @ff_mpeg_update_thread_context(ptr noundef %29, ptr noundef %30)
  store i32 %31, ptr %9, align 4, !tbaa !9
  %32 = load i32, ptr %9, align 4, !tbaa !9
  %33 = icmp slt i32 %32, 0
  br i1 %33, label %34, label %36

34:                                               ; preds = %28
  %35 = load i32, ptr %9, align 4, !tbaa !9
  store i32 %35, ptr %3, align 4
  store i32 1, ptr %10, align 4
  br label %65

36:                                               ; preds = %28
  %37 = load i32, ptr %9, align 4, !tbaa !9
  %38 = icmp sgt i32 %37, 0
  br i1 %38, label %39, label %47

39:                                               ; preds = %36
  %40 = load ptr, ptr %6, align 8, !tbaa !41
  %41 = call i32 @rv34_decoder_realloc(ptr noundef %40)
  store i32 %41, ptr %9, align 4, !tbaa !9
  %42 = load i32, ptr %9, align 4, !tbaa !9
  %43 = icmp slt i32 %42, 0
  br i1 %43, label %44, label %46

44:                                               ; preds = %39
  %45 = load i32, ptr %9, align 4, !tbaa !9
  store i32 %45, ptr %3, align 4
  store i32 1, ptr %10, align 4
  br label %65

46:                                               ; preds = %39
  br label %47

47:                                               ; preds = %46, %36
  %48 = load ptr, ptr %7, align 8, !tbaa !41
  %49 = getelementptr inbounds nuw %struct.RV34DecContext, ptr %48, i32 0, i32 18
  %50 = load i32, ptr %49, align 8, !tbaa !92
  %51 = load ptr, ptr %6, align 8, !tbaa !41
  %52 = getelementptr inbounds nuw %struct.RV34DecContext, ptr %51, i32 0, i32 18
  store i32 %50, ptr %52, align 8, !tbaa !92
  %53 = load ptr, ptr %7, align 8, !tbaa !41
  %54 = getelementptr inbounds nuw %struct.RV34DecContext, ptr %53, i32 0, i32 19
  %55 = load i32, ptr %54, align 4, !tbaa !93
  %56 = load ptr, ptr %6, align 8, !tbaa !41
  %57 = getelementptr inbounds nuw %struct.RV34DecContext, ptr %56, i32 0, i32 19
  store i32 %55, ptr %57, align 4, !tbaa !93
  %58 = load ptr, ptr %7, align 8, !tbaa !41
  %59 = getelementptr inbounds nuw %struct.RV34DecContext, ptr %58, i32 0, i32 20
  %60 = load i32, ptr %59, align 8, !tbaa !94
  %61 = load ptr, ptr %6, align 8, !tbaa !41
  %62 = getelementptr inbounds nuw %struct.RV34DecContext, ptr %61, i32 0, i32 20
  store i32 %60, ptr %62, align 8, !tbaa !94
  %63 = load ptr, ptr %6, align 8, !tbaa !41
  %64 = getelementptr inbounds nuw %struct.RV34DecContext, ptr %63, i32 0, i32 9
  call void @llvm.memset.p0.i64(ptr align 8 %64, i8 0, i64 32, i1 false)
  store i32 0, ptr %3, align 4
  store i32 1, ptr %10, align 4
  br label %65

65:                                               ; preds = %47, %44, %34, %27
  call void @llvm.lifetime.end.p0(i64 4, ptr %9) #12
  call void @llvm.lifetime.end.p0(i64 8, ptr %8) #12
  call void @llvm.lifetime.end.p0(i64 8, ptr %7) #12
  call void @llvm.lifetime.end.p0(i64 8, ptr %6) #12
  %66 = load i32, ptr %3, align 4
  ret i32 %66
}