; Function Attrs: nounwind uwtable
define range(i32 -2147483648, 1) i32 @ff_rv34_decode_update_thread_context(ptr noundef %0, ptr noundef %1) local_unnamed_addr #4 {
  %3 = getelementptr inbounds nuw i8, ptr %0, i64 32
  %4 = load ptr, ptr %3, align 8, !tbaa !18
  %5 = getelementptr inbounds nuw i8, ptr %1, i64 32
  %6 = load ptr, ptr %5, align 8, !tbaa !18
  %7 = icmp eq ptr %0, %1
  br i1 %7, label %36, label %8

8:                                                ; preds = %2
  %9 = getelementptr inbounds nuw i8, ptr %6, i64 532
  %10 = load i32, ptr %9, align 4, !tbaa !88
  %.not = icmp eq i32 %10, 0
  br i1 %.not, label %36, label %11

11:                                               ; preds = %8
  %12 = tail call i32 @ff_mpeg_update_thread_context(ptr noundef nonnull %0, ptr noundef nonnull %1) #15
  %13 = icmp slt i32 %12, 0
  br i1 %13, label %36, label %14

14:                                               ; preds = %11
  %.not25 = icmp eq i32 %12, 0
  br i1 %.not25, label %25, label %15

15:                                               ; preds = %14
  %16 = getelementptr inbounds nuw i8, ptr %4, i64 5992
  tail call void @av_freep(ptr noundef nonnull %16) #15
  %17 = getelementptr inbounds nuw i8, ptr %4, i64 6000
  store ptr null, ptr %17, align 8, !tbaa !75
  %18 = getelementptr inbounds nuw i8, ptr %4, i64 6768
  tail call void @av_freep(ptr noundef nonnull %18) #15
  %19 = getelementptr inbounds nuw i8, ptr %4, i64 6544
  tail call void @av_freep(ptr noundef nonnull %19) #15
  %20 = getelementptr inbounds nuw i8, ptr %4, i64 6648
  tail call void @av_freep(ptr noundef nonnull %20) #15
  %21 = getelementptr inbounds nuw i8, ptr %4, i64 6656
  tail call void @av_freep(ptr noundef nonnull %21) #15
  %22 = getelementptr inbounds nuw i8, ptr %4, i64 6664
  tail call void @av_freep(ptr noundef nonnull %22) #15
  %23 = tail call fastcc range(i32 -12, 1) i32 @rv34_decoder_alloc(ptr noundef %4)
  %24 = icmp slt i32 %23, 0
  br i1 %24, label %36, label %25

25:                                               ; preds = %15, %14
  %26 = getelementptr inbounds nuw i8, ptr %6, i64 6608
  %27 = load i32, ptr %26, align 8, !tbaa !89
  %28 = getelementptr inbounds nuw i8, ptr %4, i64 6608
  store i32 %27, ptr %28, align 8, !tbaa !89
  %29 = getelementptr inbounds nuw i8, ptr %6, i64 6612
  %30 = load i32, ptr %29, align 4, !tbaa !90
  %31 = getelementptr inbounds nuw i8, ptr %4, i64 6612
  store i32 %30, ptr %31, align 4, !tbaa !90
  %32 = getelementptr inbounds nuw i8, ptr %6, i64 6616
  %33 = load i32, ptr %32, align 8, !tbaa !91
  %34 = getelementptr inbounds nuw i8, ptr %4, i64 6616
  store i32 %33, ptr %34, align 8, !tbaa !91
  %35 = getelementptr inbounds nuw i8, ptr %4, i64 6512
  tail call void @llvm.memset.p0.i64(ptr noundef nonnull align 8 dereferenceable(32) %35, i8 0, i64 32, i1 false)
  br label %36

36:                                               ; preds = %15, %11, %2, %8, %25
  %.0 = phi i32 [ 0, %25 ], [ 0, %8 ], [ 0, %2 ], [ %12, %11 ], [ %23, %15 ]
  ret i32 %.0
}